; Function Attrs: nounwind uwtable
define hidden void @png_set_alpha_mode(ptr noalias noundef %0, i32 noundef %1, double noundef %2) local_unnamed_addr #0 {
  %4 = fcmp ogt double %2, 0.000000e+00
  %5 = fcmp olt double %2, 1.280000e+02
  %or.cond.i = and i1 %4, %5
  %6 = fmul double %2, 1.000000e+05
  %.0.i = select i1 %or.cond.i, double %6, double %2
  %7 = fadd double %.0.i, 5.000000e-01
  %8 = tail call double @llvm.floor.f64(double %7)
  %9 = tail call double @llvm.fabs.f64(double %8)
  %or.cond3.i = fcmp ogt double %9, 0x41DFFFFFFFC00000
  br i1 %or.cond3.i, label %10, label %convert_gamma_value.exit

10:                                               ; preds = %3
  tail call void @png_fixed_error(ptr noundef %0, ptr noundef nonnull @.str.21) #12
  unreachable

convert_gamma_value.exit:                         ; preds = %3
  %11 = fptosi double %8 to i32
  tail call void @png_set_alpha_mode_fixed(ptr noundef %0, i32 noundef %1, i32 noundef %11)
  ret void
}